; Function Attrs: nounwind uwtable
define ptr @l_Lake_withLogErrorPos___rarg(ptr noundef %0, ptr noundef %1, ptr noundef %2, ptr noundef %3) #1 {
  %5 = getelementptr inbounds nuw i8, ptr %0, i64 8
  %6 = getelementptr inbounds nuw i8, ptr %0, i64 16
  %7 = load ptr, ptr %6, align 8, !tbaa !10
  %8 = ptrtoint ptr %7 to i64
  %9 = and i64 %8, 1
  %.not = icmp eq i64 %9, 0
  br i1 %.not, label %10, label %lean_inc.exit31

10:                                               ; preds = %4
  %.val.i = load i32, ptr %7, align 4, !tbaa !4
  %11 = icmp sgt i32 %.val.i, 0
  br i1 %11, label %12, label %14, !prof !9

12:                                               ; preds = %10
  %13 = add nuw i32 %.val.i, 1
  store i32 %13, ptr %7, align 4, !tbaa !4
  br label %lean_inc.exit31

14:                                               ; preds = %10
  %.not.i38 = icmp eq i32 %.val.i, 0
  br i1 %.not.i38, label %lean_inc.exit31, label %15

15:                                               ; preds = %14
  tail call void @lean_inc_ref_cold(ptr noundef nonnull %7) #9
  br label %lean_inc.exit31

lean_inc.exit31:                                  ; preds = %15, %14, %12, %4
  %16 = load ptr, ptr %5, align 8, !tbaa !10
  %17 = ptrtoint ptr %16 to i64
  %18 = and i64 %17, 1
  %.not51 = icmp eq i64 %18, 0
  br i1 %.not51, label %19, label %lean_inc.exit30

19:                                               ; preds = %lean_inc.exit31
  %.val.i39 = load i32, ptr %16, align 4, !tbaa !4
  %20 = icmp sgt i32 %.val.i39, 0
  br i1 %20, label %21, label %23, !prof !9

21:                                               ; preds = %19
  %22 = add nuw i32 %.val.i39, 1
  store i32 %22, ptr %16, align 4, !tbaa !4
  br label %lean_inc.exit30

23:                                               ; preds = %19
  %.not.i40 = icmp eq i32 %.val.i39, 0
  br i1 %.not.i40, label %lean_inc.exit30, label %24

24:                                               ; preds = %23
  tail call void @lean_inc_ref_cold(ptr noundef nonnull %16) #9
  br label %lean_inc.exit30

lean_inc.exit30:                                  ; preds = %24, %23, %21, %lean_inc.exit31
  %25 = ptrtoint ptr %0 to i64
  %26 = and i64 %25, 1
  %.not52 = icmp eq i64 %26, 0
  br i1 %.not52, label %27, label %lean_dec.exit27

27:                                               ; preds = %lean_inc.exit30
  %28 = load i32, ptr %0, align 4, !tbaa !4
  %29 = icmp sgt i32 %28, 1
  br i1 %29, label %30, label %32, !prof !9

30:                                               ; preds = %27
  %31 = add nsw i32 %28, -1
  store i32 %31, ptr %0, align 4, !tbaa !4
  br label %lean_dec.exit27

32:                                               ; preds = %27
  %.not.i = icmp eq i32 %28, 0
  br i1 %.not.i, label %lean_dec.exit27, label %33

33:                                               ; preds = %32
  tail call void @lean_dec_ref_cold(ptr noundef nonnull %0) #9
  br label %lean_dec.exit27

lean_dec.exit27:                                  ; preds = %33, %32, %30, %lean_inc.exit30
  %34 = getelementptr inbounds nuw i8, ptr %16, i64 8
  %35 = load ptr, ptr %34, align 8, !tbaa !10
  %36 = ptrtoint ptr %35 to i64
  %37 = and i64 %36, 1
  %.not53 = icmp eq i64 %37, 0
  br i1 %.not53, label %38, label %lean_inc.exit29

38:                                               ; preds = %lean_dec.exit27
  %.val.i42 = load i32, ptr %35, align 4, !tbaa !4
  %39 = icmp sgt i32 %.val.i42, 0
  br i1 %39, label %40, label %42, !prof !9

40:                                               ; preds = %38
  %41 = add nuw i32 %.val.i42, 1
  store i32 %41, ptr %35, align 4, !tbaa !4
  br label %lean_inc.exit29

42:                                               ; preds = %38
  %.not.i43 = icmp eq i32 %.val.i42, 0
  br i1 %.not.i43, label %lean_inc.exit29, label %43

43:                                               ; preds = %42
  tail call void @lean_inc_ref_cold(ptr noundef nonnull %35) #9
  br label %lean_inc.exit29

lean_inc.exit29:                                  ; preds = %43, %42, %40, %lean_dec.exit27
  br i1 %.not51, label %44, label %lean_dec.exit26

44:                                               ; preds = %lean_inc.exit29
  %45 = load i32, ptr %16, align 4, !tbaa !4
  %46 = icmp sgt i32 %45, 1
  br i1 %46, label %47, label %49, !prof !9

47:                                               ; preds = %44
  %48 = add nsw i32 %45, -1
  store i32 %48, ptr %16, align 4, !tbaa !4
  br label %lean_dec.exit26

49:                                               ; preds = %44
  %.not.i32 = icmp eq i32 %45, 0
  br i1 %.not.i32, label %lean_dec.exit26, label %50

50:                                               ; preds = %49
  tail call void @lean_dec_ref_cold(ptr noundef nonnull %16) #9
  br label %lean_dec.exit26

lean_dec.exit26:                                  ; preds = %50, %49, %47, %lean_inc.exit29
  %51 = getelementptr inbounds nuw i8, ptr %35, i64 8
  %52 = load ptr, ptr %51, align 8, !tbaa !10
  %53 = ptrtoint ptr %52 to i64
  %54 = and i64 %53, 1
  %.not54 = icmp eq i64 %54, 0
  br i1 %.not54, label %55, label %lean_inc.exit28

55:                                               ; preds = %lean_dec.exit26
  %.val.i45 = load i32, ptr %52, align 4, !tbaa !4
  %56 = icmp sgt i32 %.val.i45, 0
  br i1 %56, label %57, label %59, !prof !9

57:                                               ; preds = %55
  %58 = add nuw i32 %.val.i45, 1
  store i32 %58, ptr %52, align 4, !tbaa !4
  br label %lean_inc.exit28

59:                                               ; preds = %55
  %.not.i46 = icmp eq i32 %.val.i45, 0
  br i1 %.not.i46, label %lean_inc.exit28, label %60

60:                                               ; preds = %59
  tail call void @lean_inc_ref_cold(ptr noundef nonnull %52) #9
  br label %lean_inc.exit28

lean_inc.exit28:                                  ; preds = %60, %59, %57, %lean_dec.exit26
  br i1 %.not53, label %61, label %lean_dec.exit25

61:                                               ; preds = %lean_inc.exit28
  %62 = load i32, ptr %35, align 4, !tbaa !4
  %63 = icmp sgt i32 %62, 1
  br i1 %63, label %64, label %66, !prof !9

64:                                               ; preds = %61
  %65 = add nsw i32 %62, -1
  store i32 %65, ptr %35, align 4, !tbaa !4
  br label %lean_dec.exit25

66:                                               ; preds = %61
  %.not.i34 = icmp eq i32 %62, 0
  br i1 %.not.i34, label %lean_dec.exit25, label %67

67:                                               ; preds = %66
  tail call void @lean_dec_ref_cold(ptr noundef nonnull %35) #9
  br label %lean_dec.exit25

lean_dec.exit25:                                  ; preds = %67, %66, %64, %lean_inc.exit28
  %68 = getelementptr inbounds nuw i8, ptr %1, i64 8
  %69 = load ptr, ptr %68, align 8, !tbaa !10
  %70 = ptrtoint ptr %69 to i64
  %71 = and i64 %70, 1
  %.not55 = icmp eq i64 %71, 0
  br i1 %.not55, label %72, label %lean_inc.exit

72:                                               ; preds = %lean_dec.exit25
  %.val.i48 = load i32, ptr %69, align 4, !tbaa !4
  %73 = icmp sgt i32 %.val.i48, 0
  br i1 %73, label %74, label %76, !prof !9

74:                                               ; preds = %72
  %75 = add nuw i32 %.val.i48, 1
  store i32 %75, ptr %69, align 4, !tbaa !4
  br label %lean_inc.exit

76:                                               ; preds = %72
  %.not.i49 = icmp eq i32 %.val.i48, 0
  br i1 %.not.i49, label %lean_inc.exit, label %77

77:                                               ; preds = %76
  tail call void @lean_inc_ref_cold(ptr noundef nonnull %69) #9
  br label %lean_inc.exit

lean_inc.exit:                                    ; preds = %77, %76, %74, %lean_dec.exit25
  %78 = ptrtoint ptr %1 to i64
  %79 = and i64 %78, 1
  %.not56 = icmp eq i64 %79, 0
  br i1 %.not56, label %80, label %lean_dec.exit

80:                                               ; preds = %lean_inc.exit
  %81 = load i32, ptr %1, align 4, !tbaa !4
  %82 = icmp sgt i32 %81, 1
  br i1 %82, label %83, label %85, !prof !9

83:                                               ; preds = %80
  %84 = add nsw i32 %81, -1
  store i32 %84, ptr %1, align 4, !tbaa !4
  br label %lean_dec.exit

85:                                               ; preds = %80
  %.not.i36 = icmp eq i32 %81, 0
  br i1 %.not.i36, label %lean_dec.exit, label %86

86:                                               ; preds = %85
  tail call void @lean_dec_ref_cold(ptr noundef nonnull %1) #9
  br label %lean_dec.exit

lean_dec.exit:                                    ; preds = %86, %85, %83, %lean_inc.exit
  %87 = load ptr, ptr @l_Lake_getLogPos___rarg___closed__1, align 8, !tbaa !10
  %88 = tail call ptr @lean_apply_4(ptr noundef %52, ptr noundef nonnull inttoptr (i64 1 to ptr), ptr noundef nonnull inttoptr (i64 1 to ptr), ptr noundef %87, ptr noundef %69) #9
  tail call void @lean_inc_heartbeat() #9
  %89 = tail call noalias ptr @mi_malloc_small(i64 noundef 40) #9
  %90 = icmp eq ptr %89, null
  br i1 %90, label %91, label %lean_alloc_closure.exit

91:                                               ; preds = %lean_dec.exit
  tail call void @lean_internal_panic_out_of_memory() #10
  unreachable

lean_alloc_closure.exit:                          ; preds = %lean_dec.exit
  %92 = getelementptr inbounds nuw i8, ptr %89, i64 4
  store i32 1, ptr %89, align 4, !tbaa !4
  store i32 -184549336, ptr %92, align 4
  %93 = getelementptr inbounds nuw i8, ptr %89, i64 8
  store ptr @l_Lake_withLogErrorPos___rarg___lambda__2, ptr %93, align 8, !tbaa !10
  %94 = getelementptr inbounds nuw i8, ptr %89, i64 16
  store i16 3, ptr %94, align 8, !tbaa !12
  %95 = getelementptr inbounds nuw i8, ptr %89, i64 18
  store i16 2, ptr %95, align 2, !tbaa !12
  %96 = getelementptr inbounds nuw i8, ptr %89, i64 24
  store ptr %2, ptr %96, align 8, !tbaa !10
  %97 = getelementptr inbounds nuw i8, ptr %89, i64 32
  store ptr %3, ptr %97, align 8, !tbaa !10
  %98 = tail call ptr @lean_apply_4(ptr noundef %7, ptr noundef nonnull inttoptr (i64 1 to ptr), ptr noundef nonnull inttoptr (i64 1 to ptr), ptr noundef %88, ptr noundef nonnull %89) #9
  ret ptr %98
}